Certificate:
    Data:
        Version: 3 (0x2)
        Serial Number: 14596876984353802375 (0xca9286479a7bc887)
    Signature Algorithm: sha256WithRSAEncryption
        Issuer: C=US, ST=CA, O=Apache, OU=Apache Pulsar, CN=localhost
        Validity
            Not Before: Feb 18 10:41:02 2021 GMT
            Not After : Feb 16 10:41:02 2031 GMT
        Subject: C=US, ST=CA, O=Apache, OU=Apache Pulsar, CN=localhost
        Subject Public Key Info:
            Public Key Algorithm: rsaEncryption
                Public-Key: (2048 bit)
                Modulus:
                    00:aa:b4:3e:52:4f:f4:4a:39:01:8e:18:71:9c:8c:
                    0b:6d:6f:b0:54:df:b6:91:fc:c5:93:97:c5:a0:70:
                    ab:18:40:59:12:c5:7c:30:1b:5b:5f:67:64:34:b8:
                    ee:fb:8e:ce:c9:af:e3:e4:12:18:b5:6a:0e:1f:4d:
                    3a:65:fd:98:09:35:35:2e:f1:5b:90:db:6d:37:d0:
                    22:cd:ca:6c:b1:4f:80:b4:79:14:7f:56:fb:c4:e1:
                    41:88:64:73:47:18:f3:70:8a:df:a1:a9:fe:b1:a6:
                    e5:6f:b9:39:b9:cc:aa:af:b2:70:86:e6:0b:fc:6c:
                    20:35:11:74:85:3e:89:14:1c:fa:23:e4:92:30:7f:
                    8e:14:c9:6c:ea:08:ba:b9:f7:f6:59:bb:5f:4b:46:
                    f7:33:75:cf:03:91:6e:b8:e0:ab:53:73:9b:1a:61:
                    45:ed:68:24:92:6f:e2:d9:25:75:0a:09:58:d7:aa:
                    00:65:20:93:99:c8:1a:a6:59:cb:00:e6:34:35:2e:
                    a5:4d:ee:fe:00:7a:e2:fe:cc:e1:cc:4c:7d:04:69:
                    ff:28:6d:fb:bf:cb:a2:fe:f0:f0:f6:9e:92:e5:39:
                    77:a3:9d:79:ae:18:7f:a9:47:8a:e0:e7:48:23:67:
                    06:ab:b2:f0:f4:11:9c:e9:8a:69:70:8d:f6:9b:2d:
                    2c:bd
                Exponent: 65537 (0x10001)
        X509v3 extensions:
            X509v3 Basic Constraints: 
                CA:FALSE
            X509v3 Authority Key Identifier: 
                keyid:24:74:B2:3D:9C:FB:33:FC:F8:C6:F3:43:65:67:46:4D:37:8B:E5:0C

            X509v3 Subject Key Identifier: 
                39:8B:93:2E:45:21:88:77:A5:6E:5D:48:91:AB:3F:44:59:11:B8:C3
    Signature Algorithm: sha256WithRSAEncryption
         79:e5:f9:a2:95:af:fb:cd:6f:3f:14:ad:b7:54:76:4a:0b:ea:
         50:c1:84:07:ed:0f:6d:5a:99:96:3d:c0:4f:16:c3:37:90:63:
         7b:7c:4a:f4:95:25:b3:f7:24:3d:51:29:27:17:14:f5:16:e2:
         77:c0:ac:4d:80:6e:95:2f:d4:9e:1d:f5:d0:87:26:e5:ff:3b:
         f9:65:39:35:b3:a9:83:a6:0e:b1:00:f5:ee:1f:c6:6c:06:4c:
         c0:83:a3:8e:f1:8a:65:3f:af:d8:66:26:fe:b3:e9:f4:07:e0:
         65:b4:b0:af:25:ce:90:ca:36:40:c2:0f:bd:d9:30:39:55:a6:
         dc:1f:1e:1c:df:da:15:b1:f5:44:f3:c5:fc:bf:fd:ea:8d:4e:
         8e:6e:d4:f3:53:d7:05:5b:d6:89:6b:e5:35:84:9c:7e:80:c7:
         29:7d:4b:2d:ed:04:59:e5:5e:6b:cd:c6:4e:cd:ff:8a:0b:4c:
         96:7c:23:45:f2:09:56:09:55:1f:63:93:f5:c6:53:ec:75:ad:
         24:01:7f:1d:e9:21:44:5e:3f:c2:cc:7d:44:93:7a:38:e9:cd:
         ee:b2:8d:03:bb:ef:d9:ac:b5:d8:80:7c:54:bf:0e:83:91:9b:
         e7:e6:15:f0:01:65:ea:14:db:ef:8c:bc:99:92:5d:fa:9a:e9:
         63:56:2f:50
-----BEGIN CERTIFICATE-----
MIIDfjCCAmagAwIBAgIJAMqShkeae8iHMA0GCSqGSIb3DQEBCwUAMFcxCzAJBgNV
BAYTAlVTMQswCQYDVQQIDAJDQTEPMA0GA1UECgwGQXBhY2hlMRYwFAYDVQQLDA1B
cGFjaGUgUHVsc2FyMRIwEAYDVQQDDAlsb2NhbGhvc3QwHhcNMjEwMjE4MTA0MTAy
WhcNMzEwMjE2MTA0MTAyWjBXMQswCQYDVQQGEwJVUzELMAkGA1UECAwCQ0ExDzAN
BgNVBAoMBkFwYWNoZTEWMBQGA1UECwwNQXBhY2hlIFB1bHNhcjESMBAGA1UEAwwJ
bG9jYWxob3N0MIIBIjANBgkqhkiG9w0BAQEFAAOCAQ8AMIIBCgKCAQEAqrQ+Uk/0
SjkBjhhxnIwLbW+wVN+2kfzFk5fFoHCrGEBZEsV8MBtbX2dkNLju+47Oya/j5BIY
tWoOH006Zf2YCTU1LvFbkNttN9AizcpssU+AtHkUf1b7xOFBiGRzRxjzcIrfoan+
sablb7k5ucyqr7JwhuYL/GwgNRF0hT6JFBz6I+SSMH+OFMls6gi6uff2WbtfS0b3
M3XPA5FuuOCrU3ObGmFF7Wgkkm/i2SV1CglY16oAZSCTmcgaplnLAOY0NS6lTe7+
AHri/szhzEx9BGn/KG37v8ui/vDw9p6S5Tl3o515rhh/qUeK4OdII2cGq7Lw9BGc
6YppcI32my0svQIDAQABo00wSzAJBgNVHRMEAjAAMB8GA1UdIwQYMBaAFCR0sj2c
+zP8+MbzQ2VnRk03i+UMMB0GA1UdDgQWBBQ5i5MuRSGId6VuXUiRqz9EWRG4wzAN
BgkqhkiG9w0BAQsFAAOCAQEAeeX5opWv+81vPxStt1R2SgvqUMGEB+0PbVqZlj3A
TxbDN5Bje3xK9JUls/ckPVEpJxcU9Rbid8CsTYBulS/Unh310Icm5f87+WU5NbOp
g6YOsQD17h/GbAZMwIOjjvGKZT+v2GYm/rPp9AfgZbSwryXOkMo2QMIPvdkwOVWm
3B8eHN/aFbH1RPPF/L/96o1Ojm7U81PXBVvWiWvlNYScfoDHKX1LLe0EWeVea83G
Ts3/igtMlnwjRfIJVglVH2OT9cZT7HWtJAF/HekhRF4/wsx9RJN6OOnN7rKNA7vv
2ay12IB8VL8Og5Gb5+YV8AFl6hTb74y8mZJd+prpY1YvUA==
-----END CERTIFICATE-----
