Certificate:
    Data:
        Version: 3 (0x2)
        Serial Number: 11059863431794855347 (0x997c87318c770db3)
    Signature Algorithm: sha256WithRSAEncryption
        Issuer: C=US, ST=CA, O=Apache, OU=Apache Pulsar, CN=localhost
        Validity
            Not Before: Feb 18 10:41:02 2021 GMT
            Not After : Feb 18 10:41:02 2024 GMT
        Subject: C=US, ST=CA, O=Apache, OU=Apache Pulsar, CN=localhost
        Subject Public Key Info:
            Public Key Algorithm: rsaEncryption
                Public-Key: (2048 bit)
                Modulus:
                    00:c8:48:85:a7:f2:11:d4:20:5a:37:97:d5:0c:d7:
                    b4:42:47:5b:4b:c4:8e:06:d0:c4:20:63:95:24:67:
                    13:db:84:fc:e2:79:dd:af:f7:ed:87:ed:67:01:a2:
                    35:2c:47:8d:2e:d4:44:5b:3f:00:c3:32:8e:3f:aa:
                    f8:f9:73:70:74:eb:fa:78:66:fd:7f:f2:3c:2e:dd:
                    95:96:65:bf:87:c2:52:fa:18:54:5b:11:04:8f:75:
                    44:36:b4:53:3b:dc:07:28:35:22:6e:13:d4:27:23:
                    0f:b9:94:b5:97:0a:eb:b3:92:6d:2a:6a:9a:39:2c:
                    dd:82:33:ed:9a:49:a3:41:32:ad:59:64:85:3c:ea:
                    cc:68:d5:62:b1:e8:5c:9d:7a:e0:e8:93:0e:ef:e4:
                    40:3d:73:11:01:85:43:43:ee:b6:f4:ff:47:64:54:
                    24:96:39:c8:6e:c6:98:c2:8a:37:81:dd:44:5a:9a:
                    86:01:a9:67:65:19:1b:b9:12:68:da:00:d5:cf:97:
                    de:ba:e4:e4:2f:90:5b:89:f6:c6:d9:a8:e8:a2:ce:
                    65:d2:b2:9e:55:58:0c:28:b5:e0:97:c5:65:2b:1e:
                    09:1b:56:29:43:76:d4:75:e9:06:ca:2c:ff:78:52:
                    89:6c:8e:26:8e:3e:e3:fc:31:91:6e:57:44:02:60:
                    48:ad
                Exponent: 65537 (0x10001)
        X509v3 extensions:
            X509v3 Basic Constraints: 
                CA:TRUE
            X509v3 Authority Key Identifier: 
                DirName:/C=US/ST=CA/O=Apache/OU=Apache Pulsar/CN=localhost
                serial:99:7C:87:31:8C:77:0D:B3

            X509v3 Subject Key Identifier: 
                24:74:B2:3D:9C:FB:33:FC:F8:C6:F3:43:65:67:46:4D:37:8B:E5:0C
    Signature Algorithm: sha256WithRSAEncryption
         9d:a5:a3:b7:91:a9:d7:d7:01:d9:86:56:27:30:cc:6e:4b:bc:
         fb:54:73:41:0e:f3:26:92:6c:31:a3:9b:38:56:89:e8:85:55:
         39:4b:57:12:16:59:ea:38:51:4d:7a:9f:df:19:fd:af:7c:18:
         37:29:82:20:1b:cf:bb:da:08:4d:bd:3e:40:59:dc:29:cb:22:
         f9:f2:59:3f:a7:bc:c0:c0:40:53:8e:f0:b0:11:22:4c:b7:44:
         2d:ea:31:9b:cf:43:72:cd:0d:56:7b:e3:7b:31:73:3d:80:41:
         d8:3e:ce:15:76:20:b9:80:a0:06:b3:ca:61:77:ad:4d:7f:d1:
         d3:ae:48:28:32:f3:d3:b2:cc:4e:f8:47:5f:de:47:6b:18:15:
         de:d6:e8:8a:6f:a1:cc:aa:f4:2b:c8:da:e6:a8:64:b4:3c:fa:
         dd:90:f5:69:45:74:bf:fd:d4:92:b7:86:d1:5e:97:ac:84:65:
         55:de:f6:34:02:b1:76:c6:00:5f:18:74:b9:f0:f1:93:a8:fc:
         1e:e6:02:bc:0d:5f:fb:17:cb:c1:d0:1b:bb:94:0d:6b:93:aa:
         e0:26:58:88:cd:ce:d0:62:37:45:42:ca:a7:a9:7c:cf:62:b3:
         c0:47:a0:07:75:d8:dc:04:7c:74:62:7e:ba:27:13:f3:0a:aa:
         1a:f0:06:f7
-----BEGIN CERTIFICATE-----
MIID1TCCAr2gAwIBAgIJAJl8hzGMdw2zMA0GCSqGSIb3DQEBCwUAMFcxCzAJBgNV
BAYTAlVTMQswCQYDVQQIDAJDQTEPMA0GA1UECgwGQXBhY2hlMRYwFAYDVQQLDA1B
cGFjaGUgUHVsc2FyMRIwEAYDVQQDDAlsb2NhbGhvc3QwHhcNMjEwMjE4MTA0MTAy
WhcNMjQwMjE4MTA0MTAyWjBXMQswCQYDVQQGEwJVUzELMAkGA1UECAwCQ0ExDzAN
BgNVBAoMBkFwYWNoZTEWMBQGA1UECwwNQXBhY2hlIFB1bHNhcjESMBAGA1UEAwwJ
bG9jYWxob3N0MIIBIjANBgkqhkiG9w0BAQEFAAOCAQ8AMIIBCgKCAQEAyEiFp/IR
1CBaN5fVDNe0QkdbS8SOBtDEIGOVJGcT24T84nndr/fth+1nAaI1LEeNLtREWz8A
wzKOP6r4+XNwdOv6eGb9f/I8Lt2VlmW/h8JS+hhUWxEEj3VENrRTO9wHKDUibhPU
JyMPuZS1lwrrs5JtKmqaOSzdgjPtmkmjQTKtWWSFPOrMaNVisehcnXrg6JMO7+RA
PXMRAYVDQ+629P9HZFQkljnIbsaYwoo3gd1EWpqGAalnZRkbuRJo2gDVz5feuuTk
L5BbifbG2ajoos5l0rKeVVgMKLXgl8VlKx4JG1YpQ3bUdekGyiz/eFKJbI4mjj7j
/DGRbldEAmBIrQIDAQABo4GjMIGgMAwGA1UdEwQFMAMBAf8wcQYDVR0jBGowaKFb
pFkwVzELMAkGA1UEBhMCVVMxCzAJBgNVBAgMAkNBMQ8wDQYDVQQKDAZBcGFjaGUx
FjAUBgNVBAsMDUFwYWNoZSBQdWxzYXIxEjAQBgNVBAMMCWxvY2FsaG9zdIIJAJl8
hzGMdw2zMB0GA1UdDgQWBBQkdLI9nPsz/PjG80NlZ0ZNN4vlDDANBgkqhkiG9w0B
AQsFAAOCAQEAnaWjt5Gp19cB2YZWJzDMbku8+1RzQQ7zJpJsMaObOFaJ6IVVOUtX
EhZZ6jhRTXqf3xn9r3wYNymCIBvPu9oITb0+QFncKcsi+fJZP6e8wMBAU47wsBEi
TLdELeoxm89Dcs0NVnvjezFzPYBB2D7OFXYguYCgBrPKYXetTX/R065IKDLz07LM
TvhHX95HaxgV3tboim+hzKr0K8ja5qhktDz63ZD1aUV0v/3UkreG0V6XrIRlVd72
NAKxdsYAXxh0ufDxk6j8HuYCvA1f+xfLwdAbu5QNa5Oq4CZYiM3O0GI3RULKp6l8
z2KzwEegB3XY3AR8dGJ+uicT8wqqGvAG9w==
-----END CERTIFICATE-----
