Certificate:
    Data:
        Version: 3 (0x2)
        Serial Number: 14596876984353802374 (0xca9286479a7bc886)
    Signature Algorithm: sha256WithRSAEncryption
        Issuer: C=US, ST=CA, O=Apache, OU=Apache Pulsar, CN=localhost
        Validity
            Not Before: Feb 18 10:41:02 2021 GMT
            Not After : Feb 16 10:41:02 2031 GMT
        Subject: C=US, ST=CA, O=Apache, OU=Apache Pulsar, CN=localhost
        Subject Public Key Info:
            Public Key Algorithm: rsaEncryption
                Public-Key: (2048 bit)
                Modulus:
                    00:c7:d2:e4:13:2c:98:f2:94:35:ff:7a:0d:20:a8:
                    a3:24:c4:81:0e:0a:4e:6a:0e:d8:ec:b3:f4:d5:0f:
                    43:64:15:01:6e:05:5f:a7:04:3d:79:54:ac:23:c8:
                    d8:fd:ab:8e:c1:f7:0c:bc:e3:7d:ae:66:34:80:48:
                    4d:ec:9d:6d:c6:01:c5:f7:e6:9e:48:8b:2e:a5:9f:
                    c5:4d:f0:24:8d:a7:31:ab:82:bd:b8:9f:ab:40:f8:
                    b6:bb:fc:a0:32:60:60:2b:87:aa:29:26:c0:75:4b:
                    86:e6:fb:d0:60:a1:15:bc:5c:3b:8c:c8:5c:63:2d:
                    07:26:96:7e:0d:55:ae:70:cd:84:ba:d2:bb:65:af:
                    6a:79:3e:95:59:9b:66:6a:8b:8d:67:5a:87:ad:20:
                    f7:47:63:66:cf:4a:7d:35:9e:7b:5f:c3:55:41:89:
                    b5:df:d3:69:d1:18:90:c0:75:0f:d7:8a:c5:8f:0b:
                    e9:47:38:96:40:9c:15:07:05:03:6d:64:25:0f:b8:
                    51:e4:f9:b2:fa:39:5d:04:ab:46:fd:52:24:93:b0:
                    da:8b:aa:61:d3:ea:50:9c:0b:57:bd:10:1e:88:aa:
                    c2:46:79:09:1b:4e:f3:4c:8f:71:68:58:06:79:fe:
                    21:99:31:23:b4:4d:cf:68:9b:29:8f:01:56:0a:d6:
                    53:11
                Exponent: 65537 (0x10001)
        X509v3 extensions:
            X509v3 Basic Constraints: 
                CA:FALSE
            X509v3 Authority Key Identifier: 
                keyid:24:74:B2:3D:9C:FB:33:FC:F8:C6:F3:43:65:67:46:4D:37:8B:E5:0C

            X509v3 Subject Key Identifier: 
                34:29:D6:B6:6C:3F:02:D0:CD:E2:D5:82:AF:20:67:82:5F:0E:C6:B4
    Signature Algorithm: sha256WithRSAEncryption
         71:ef:82:44:d1:9a:8c:e0:9d:ab:43:61:6c:02:52:ee:e7:b5:
         ec:be:ae:d9:83:1b:cd:db:6c:42:3b:1d:f3:79:b9:b0:fb:35:
         61:6d:ee:82:4d:5c:c9:05:9e:3c:40:d0:14:df:01:ff:79:92:
         5a:56:4e:c3:b1:fd:65:bf:e5:c5:fb:ae:d0:70:4b:07:4c:d0:
         32:12:42:7b:1a:b5:b1:02:3d:46:d2:0d:bc:e4:c4:c8:0e:3c:
         1b:b2:a3:06:ab:ff:90:93:18:2d:fb:75:f8:fe:e5:7e:b2:51:
         16:f5:d7:18:0c:d4:f9:63:5c:ff:b5:cc:ca:62:a0:49:a9:00:
         5c:44:ca:92:55:81:37:07:22:f2:da:e0:c9:23:66:d5:ad:f6:
         db:75:0a:1a:67:8c:79:5b:bc:7e:44:f8:b6:41:15:78:dc:f0:
         a3:3f:95:5d:79:d7:80:5f:b4:d0:cf:64:73:b5:46:7d:b3:89:
         39:5f:44:b3:92:57:47:51:12:a9:75:a5:f4:81:46:c1:40:91:
         ba:db:8b:8c:69:53:06:5c:c7:bd:00:fe:39:da:36:a4:a7:4e:
         53:dd:b1:2a:47:56:11:64:9c:b0:43:c1:c2:67:c8:be:ea:d0:
         3b:5d:52:8f:7f:c7:9b:55:47:7b:6d:7f:ca:da:24:71:ab:9a:
         b0:82:3f:1d
-----BEGIN CERTIFICATE-----
MIIDfjCCAmagAwIBAgIJAMqShkeae8iGMA0GCSqGSIb3DQEBCwUAMFcxCzAJBgNV
BAYTAlVTMQswCQYDVQQIDAJDQTEPMA0GA1UECgwGQXBhY2hlMRYwFAYDVQQLDA1B
cGFjaGUgUHVsc2FyMRIwEAYDVQQDDAlsb2NhbGhvc3QwHhcNMjEwMjE4MTA0MTAy
WhcNMzEwMjE2MTA0MTAyWjBXMQswCQYDVQQGEwJVUzELMAkGA1UECAwCQ0ExDzAN
BgNVBAoMBkFwYWNoZTEWMBQGA1UECwwNQXBhY2hlIFB1bHNhcjESMBAGA1UEAwwJ
bG9jYWxob3N0MIIBIjANBgkqhkiG9w0BAQEFAAOCAQ8AMIIBCgKCAQEAx9LkEyyY
8pQ1/3oNIKijJMSBDgpOag7Y7LP01Q9DZBUBbgVfpwQ9eVSsI8jY/auOwfcMvON9
rmY0gEhN7J1txgHF9+aeSIsupZ/FTfAkjacxq4K9uJ+rQPi2u/ygMmBgK4eqKSbA
dUuG5vvQYKEVvFw7jMhcYy0HJpZ+DVWucM2EutK7Za9qeT6VWZtmaouNZ1qHrSD3
R2Nmz0p9NZ57X8NVQYm139Np0RiQwHUP14rFjwvpRziWQJwVBwUDbWQlD7hR5Pmy
+jldBKtG/VIkk7Dai6ph0+pQnAtXvRAeiKrCRnkJG07zTI9xaFgGef4hmTEjtE3P
aJspjwFWCtZTEQIDAQABo00wSzAJBgNVHRMEAjAAMB8GA1UdIwQYMBaAFCR0sj2c
+zP8+MbzQ2VnRk03i+UMMB0GA1UdDgQWBBQ0Kda2bD8C0M3i1YKvIGeCXw7GtDAN
BgkqhkiG9w0BAQsFAAOCAQEAce+CRNGajOCdq0NhbAJS7ue17L6u2YMbzdtsQjsd
83m5sPs1YW3ugk1cyQWePEDQFN8B/3mSWlZOw7H9Zb/lxfuu0HBLB0zQMhJCexq1
sQI9RtINvOTEyA48G7KjBqv/kJMYLft1+P7lfrJRFvXXGAzU+WNc/7XMymKgSakA
XETKklWBNwci8trgySNm1a3223UKGmeMeVu8fkT4tkEVeNzwoz+VXXnXgF+00M9k
c7VGfbOJOV9Es5JXR1ESqXWl9IFGwUCRutuLjGlTBlzHvQD+Odo2pKdOU92xKkdW
EWScsEPBwmfIvurQO11Sj3/Hm1VHe21/ytokcauasII/HQ==
-----END CERTIFICATE-----
